; Function Attrs: mustprogress uwtable
define hidden void @_ZN3smt12theory_array15set_prop_upwardEiPNS0_8var_dataE(ptr noundef nonnull align 8 dereferenceable(444) %0, i32 %1, ptr noundef readonly captures(none) %2) unnamed_addr #4 align 2 {
  %4 = load ptr, ptr %2, align 8, !tbaa !550
  %5 = icmp eq ptr %4, null
  br i1 %5, label %._crit_edge, label %_ZNK6vectorIPN3smt5enodeELb0EjE4sizeEv.exit

_ZNK6vectorIPN3smt5enodeELb0EjE4sizeEv.exit:      ; preds = %3
  %6 = getelementptr inbounds i8, ptr %4, i64 -4
  %7 = load i32, ptr %6, align 4, !tbaa !560
  %.not = icmp eq i32 %7, 0
  br i1 %.not, label %._crit_edge, label %.lr.ph.preheader

.lr.ph.preheader:                                 ; preds = %_ZNK6vectorIPN3smt5enodeELb0EjE4sizeEv.exit
  %wide.trip.count = zext i32 %7 to i64
  br label %.lr.ph

._crit_edge:                                      ; preds = %.lr.ph, %3, %_ZNK6vectorIPN3smt5enodeELb0EjE4sizeEv.exit
  ret void

.lr.ph:                                           ; preds = %.lr.ph.preheader, %.lr.ph
  %indvars.iv = phi i64 [ 0, %.lr.ph.preheader ], [ %indvars.iv.next, %.lr.ph ]
  %8 = load ptr, ptr %2, align 8, !tbaa !550
  %9 = getelementptr inbounds nuw ptr, ptr %8, i64 %indvars.iv
  %10 = load ptr, ptr %9, align 8, !tbaa !570
  %11 = load ptr, ptr %0, align 8, !tbaa !3
  %12 = getelementptr inbounds nuw i8, ptr %11, i64 400
  %13 = load ptr, ptr %12, align 8
  tail call void %13(ptr noundef nonnull align 8 dereferenceable(444) %0, ptr noundef %10)
  %indvars.iv.next = add nuw nsw i64 %indvars.iv, 1
  %exitcond.not = icmp eq i64 %indvars.iv.next, %wide.trip.count
  br i1 %exitcond.not, label %._crit_edge, label %.lr.ph, !llvm.loop !620
}